target datalayout = "e-m:e-p270:32:32-p271:32:32-p272:64:64-i64:64-i128:128-f80:128-n8:16:32:64-S128"
target triple = "x86_64-pc-linux-gnu"

%"class.llvm::cl::Option" = type { ptr, i16, i16, i16, i16, %"class.llvm::StringRef", %"class.llvm::StringRef", %"class.llvm::StringRef", %"class.llvm::SmallVector", %"class.llvm::SmallPtrSet" }
%"class.llvm::StringRef" = type { ptr, i64 }
%"class.llvm::SmallVector" = type { %"class.llvm::SmallVectorImpl", %"struct.llvm::SmallVectorStorage" }
%"class.llvm::SmallVectorImpl" = type { %"class.llvm::SmallVectorTemplateBase" }
%"class.llvm::SmallVectorTemplateBase" = type { %"class.llvm::SmallVectorTemplateCommon" }
%"class.llvm::SmallVectorTemplateCommon" = type { %"class.llvm::SmallVectorBase" }
%"class.llvm::SmallVectorBase" = type { ptr, i32, i32 }
%"struct.llvm::SmallVectorStorage" = type { [8 x i8] }
%"class.llvm::SmallPtrSet" = type { %"class.llvm::SmallPtrSetImpl.base", [1 x ptr] }
%"class.llvm::SmallPtrSetImpl.base" = type { %"class.llvm::SmallPtrSetImplBase.base" }
%"class.llvm::SmallPtrSetImplBase.base" = type <{ ptr, ptr, i32, i32, i32 }>
%"struct.llvm::cl::GenericOptionValue" = type { ptr }
%"class.std::_Function_base" = type { %"union.std::_Any_data", ptr }
%"union.std::_Any_data" = type { %"union.std::_Nocopy_types" }
%"union.std::_Nocopy_types" = type { { i64, i64 } }
%"class.llvm::cl::opt.10" = type { %"class.llvm::cl::Option", %"class.llvm::cl::opt_storage.11", %"class.llvm::cl::parser.18", %"class.std::function.19" }
%"class.llvm::cl::opt_storage.11" = type { i8, [7 x i8], %"struct.llvm::cl::OptionValue.12" }
%"struct.llvm::cl::OptionValue.12" = type { %"struct.llvm::cl::OptionValueBase.base.16", [6 x i8] }
%"struct.llvm::cl::OptionValueBase.base.16" = type { %"class.llvm::cl::OptionValueCopy.base.15" }
%"class.llvm::cl::OptionValueCopy.base.15" = type <{ %"struct.llvm::cl::GenericOptionValue", i8, i8 }>
%"class.llvm::cl::parser.18" = type { %"class.llvm::cl::basic_parser" }
%"class.llvm::cl::basic_parser" = type { %"class.llvm::cl::basic_parser_impl" }
%"class.llvm::cl::basic_parser_impl" = type { ptr }
%"class.std::function.19" = type { %"class.std::_Function_base", ptr }
%"class.llvm::cl::opt.55" = type { %"class.llvm::cl::Option", %"class.llvm::cl::opt_storage.56", %"class.llvm::cl::parser.63", %"class.std::function.65" }
%"class.llvm::cl::opt_storage.56" = type { i32, [4 x i8], %"struct.llvm::cl::OptionValue.57" }
%"struct.llvm::cl::OptionValue.57" = type { %"struct.llvm::cl::OptionValueBase.base.61", [3 x i8] }
%"struct.llvm::cl::OptionValueBase.base.61" = type { %"class.llvm::cl::OptionValueCopy.base.60" }
%"class.llvm::cl::OptionValueCopy.base.60" = type <{ %"struct.llvm::cl::GenericOptionValue", i32, i8 }>
%"class.llvm::cl::parser.63" = type { %"class.llvm::cl::basic_parser.64" }
%"class.llvm::cl::basic_parser.64" = type { %"class.llvm::cl::basic_parser_impl" }
%"class.std::function.65" = type { %"class.std::_Function_base", ptr }
%"class.llvm::PipelineTuningOptions" = type <{ i8, i8, i8, i8, i8, [3 x i8], i32, i32, i8, i8, i8, i8, i32, i8, [3 x i8] }>

@_ZL31EnableEagerlyInvalidateAnalyses = internal global %"class.llvm::cl::opt.10" zeroinitializer, align 8
@_ZL20EnableMergeFunctions = internal global %"class.llvm::cl::opt.10" zeroinitializer, align 8
@_ZN4llvm22ForgetSCEVInLoopUnrollE = external global %"class.llvm::cl::opt.10", align 8
@_ZN4llvm17SetLicmMssaOptCapE = external global %"class.llvm::cl::opt.55", align 8
@_ZN4llvm31SetLicmMssaNoAccForPromotionCapE = external global %"class.llvm::cl::opt.55", align 8

; Function Attrs: mustprogress nounwind uwtable
define linkonce_odr hidden noundef i32 @_ZNK4llvm2cl11opt_storageIjLb0ELb0EE8getValueEv(ptr noundef nonnull align 8 dereferenceable(24) %0) #1 comdat align 2 {
  %2 = alloca ptr, align 8
  store ptr %0, ptr %2, align 8
  %3 = load ptr, ptr %2, align 8
  %4 = getelementptr inbounds nuw %"class.llvm::cl::opt_storage.56", ptr %3, i32 0, i32 0
  %5 = load i32, ptr %4, align 8
  ret i32 %5
}

; Function Attrs: mustprogress nounwind uwtable
define linkonce_odr hidden noundef zeroext i1 @_ZNK4llvm2cl11opt_storageIbLb0ELb0EE8getValueEv(ptr noundef nonnull align 8 dereferenceable(24) %0) #1 comdat align 2 {
  %2 = alloca ptr, align 8
  store ptr %0, ptr %2, align 8
  %3 = load ptr, ptr %2, align 8
  %4 = getelementptr inbounds nuw %"class.llvm::cl::opt_storage.11", ptr %3, i32 0, i32 0
  %5 = load i8, ptr %4, align 8
  %6 = trunc i8 %5 to i1
  ret i1 %6
}

; Function Attrs: mustprogress nounwind uwtable
define linkonce_odr hidden noundef i32 @_ZNK4llvm2cl11opt_storageIjLb0ELb0EEcvjEv(ptr noundef nonnull align 8 dereferenceable(24) %0) #1 comdat align 2 {
  %2 = alloca ptr, align 8
  store ptr %0, ptr %2, align 8
  %3 = load ptr, ptr %2, align 8
  %4 = call noundef i32 @_ZNK4llvm2cl11opt_storageIjLb0ELb0EE8getValueEv(ptr noundef nonnull align 8 dereferenceable(24) %3)
  ret i32 %4
}

; Function Attrs: mustprogress nounwind uwtable
define linkonce_odr hidden noundef zeroext i1 @_ZNK4llvm2cl11opt_storageIbLb0ELb0EEcvbEv(ptr noundef nonnull align 8 dereferenceable(24) %0) #1 comdat align 2 {
  %2 = alloca ptr, align 8
  store ptr %0, ptr %2, align 8
  %3 = load ptr, ptr %2, align 8
  %4 = call noundef zeroext i1 @_ZNK4llvm2cl11opt_storageIbLb0ELb0EE8getValueEv(ptr noundef nonnull align 8 dereferenceable(24) %3)
  ret i1 %4
}

; Function Attrs: mustprogress nounwind uwtable
define dso_local void @_ZN4llvm21PipelineTuningOptionsC2Ev(ptr noundef nonnull align 4 dereferenceable(25) %0) unnamed_addr #1 align 2 {
  %2 = alloca ptr, align 8
  store ptr %0, ptr %2, align 8
  %3 = load ptr, ptr %2, align 8
  %4 = getelementptr inbounds nuw %"class.llvm::PipelineTuningOptions", ptr %3, i32 0, i32 0
  store i8 1, ptr %4, align 4
  %5 = getelementptr inbounds nuw %"class.llvm::PipelineTuningOptions", ptr %3, i32 0, i32 1
  store i8 1, ptr %5, align 1
  %6 = getelementptr inbounds nuw %"class.llvm::PipelineTuningOptions", ptr %3, i32 0, i32 2
  store i8 0, ptr %6, align 2
  %7 = getelementptr inbounds nuw %"class.llvm::PipelineTuningOptions", ptr %3, i32 0, i32 3
  store i8 1, ptr %7, align 1
  %8 = call noundef zeroext i1 @_ZNK4llvm2cl11opt_storageIbLb0ELb0EEcvbEv(ptr noundef nonnull align 8 dereferenceable(24) getelementptr inbounds (i8, ptr @_ZN4llvm22ForgetSCEVInLoopUnrollE, i64 128))
  %9 = getelementptr inbounds nuw %"class.llvm::PipelineTuningOptions", ptr %3, i32 0, i32 4
  %10 = zext i1 %8 to i8
  store i8 %10, ptr %9, align 4
  %11 = call noundef i32 @_ZNK4llvm2cl11opt_storageIjLb0ELb0EEcvjEv(ptr noundef nonnull align 8 dereferenceable(24) getelementptr inbounds (i8, ptr @_ZN4llvm17SetLicmMssaOptCapE, i64 128))
  %12 = getelementptr inbounds nuw %"class.llvm::PipelineTuningOptions", ptr %3, i32 0, i32 6
  store i32 %11, ptr %12, align 4
  %13 = call noundef i32 @_ZNK4llvm2cl11opt_storageIjLb0ELb0EEcvjEv(ptr noundef nonnull align 8 dereferenceable(24) getelementptr inbounds (i8, ptr @_ZN4llvm31SetLicmMssaNoAccForPromotionCapE, i64 128))
  %14 = getelementptr inbounds nuw %"class.llvm::PipelineTuningOptions", ptr %3, i32 0, i32 7
  store i32 %13, ptr %14, align 4
  %15 = getelementptr inbounds nuw %"class.llvm::PipelineTuningOptions", ptr %3, i32 0, i32 8
  store i8 1, ptr %15, align 4
  %16 = getelementptr inbounds nuw %"class.llvm::PipelineTuningOptions", ptr %3, i32 0, i32 9
  store i8 0, ptr %16, align 1
  %17 = call noundef zeroext i1 @_ZNK4llvm2cl11opt_storageIbLb0ELb0EEcvbEv(ptr noundef nonnull align 8 dereferenceable(24) getelementptr inbounds (i8, ptr @_ZL20EnableMergeFunctions, i64 128))
  %18 = getelementptr inbounds nuw %"class.llvm::PipelineTuningOptions", ptr %3, i32 0, i32 10
  %19 = zext i1 %17 to i8
  store i8 %19, ptr %18, align 2
  %20 = getelementptr inbounds nuw %"class.llvm::PipelineTuningOptions", ptr %3, i32 0, i32 12
  store i32 -1, ptr %20, align 4
  %21 = call noundef zeroext i1 @_ZNK4llvm2cl11opt_storageIbLb0ELb0EEcvbEv(ptr noundef nonnull align 8 dereferenceable(24) getelementptr inbounds (i8, ptr @_ZL31EnableEagerlyInvalidateAnalyses, i64 128))
  %22 = getelementptr inbounds nuw %"class.llvm::PipelineTuningOptions", ptr %3, i32 0, i32 13
  %23 = zext i1 %21 to i8
  store i8 %23, ptr %22, align 4
  ret void
}