; Function Attrs: mustprogress nofree norecurse nosync nounwind willreturn memory(read, argmem: write, inaccessiblemem: none) uwtable
define dso_local void @_ZN4llvm21PipelineTuningOptionsC2Ev(ptr nocapture noundef nonnull writeonly align 4 dereferenceable(25) %0) unnamed_addr #2 align 2 {
  store i8 1, ptr %0, align 4
  %2 = getelementptr inbounds nuw i8, ptr %0, i64 1
  store i8 1, ptr %2, align 1
  %3 = getelementptr inbounds nuw i8, ptr %0, i64 2
  store i8 0, ptr %3, align 2
  %4 = getelementptr inbounds nuw i8, ptr %0, i64 3
  store i8 1, ptr %4, align 1
  %5 = load i8, ptr getelementptr inbounds (i8, ptr @_ZN4llvm22ForgetSCEVInLoopUnrollE, i64 128), align 8
  %6 = getelementptr inbounds nuw i8, ptr %0, i64 4
  %7 = and i8 %5, 1
  store i8 %7, ptr %6, align 4
  %8 = load i32, ptr getelementptr inbounds (i8, ptr @_ZN4llvm17SetLicmMssaOptCapE, i64 128), align 8
  %9 = getelementptr inbounds nuw i8, ptr %0, i64 8
  store i32 %8, ptr %9, align 4
  %10 = load i32, ptr getelementptr inbounds (i8, ptr @_ZN4llvm31SetLicmMssaNoAccForPromotionCapE, i64 128), align 8
  %11 = getelementptr inbounds nuw i8, ptr %0, i64 12
  store i32 %10, ptr %11, align 4
  %12 = getelementptr inbounds nuw i8, ptr %0, i64 16
  store i8 1, ptr %12, align 4
  %13 = getelementptr inbounds nuw i8, ptr %0, i64 17
  store i8 0, ptr %13, align 1
  %14 = load i8, ptr getelementptr inbounds (i8, ptr @_ZL20EnableMergeFunctions, i64 128), align 8
  %15 = getelementptr inbounds nuw i8, ptr %0, i64 18
  %16 = and i8 %14, 1
  store i8 %16, ptr %15, align 2
  %17 = getelementptr inbounds nuw i8, ptr %0, i64 20
  store i32 -1, ptr %17, align 4
  %18 = load i8, ptr getelementptr inbounds (i8, ptr @_ZL31EnableEagerlyInvalidateAnalyses, i64 128), align 8
  %19 = getelementptr inbounds nuw i8, ptr %0, i64 24
  %20 = and i8 %18, 1
  store i8 %20, ptr %19, align 4
  ret void
}